target datalayout = "e-m:e-p270:32:32-p271:32:32-p272:64:64-i64:64-i128:128-f80:128-n8:16:32:64-S128"
target triple = "x86_64-unknown-linux-gnu"

; Function Attrs: nounwind uwtable
define i32 @wc_HmacSizeByType(i32 noundef %type) #0 {
entry:
  %retval = alloca i32, align 4
  %type.addr = alloca i32, align 4
  %ret = alloca i32, align 4
  store i32 %type, ptr %type.addr, align 4
  %0 = load i32, ptr %type.addr, align 4
  %cmp = icmp eq i32 %0, 3
  br i1 %cmp, label %if.end, label %lor.lhs.false

lor.lhs.false:                                    ; preds = %entry
  %1 = load i32, ptr %type.addr, align 4
  %cmp1 = icmp eq i32 %1, 4
  br i1 %cmp1, label %if.end, label %lor.lhs.false2

lor.lhs.false2:                                   ; preds = %lor.lhs.false
  %2 = load i32, ptr %type.addr, align 4
  %cmp3 = icmp eq i32 %2, 5
  br i1 %cmp3, label %if.end, label %lor.lhs.false4

lor.lhs.false4:                                   ; preds = %lor.lhs.false2
  %3 = load i32, ptr %type.addr, align 4
  %cmp5 = icmp eq i32 %3, 6
  br i1 %cmp5, label %if.end, label %lor.lhs.false6

lor.lhs.false6:                                   ; preds = %lor.lhs.false4
  %4 = load i32, ptr %type.addr, align 4
  %cmp7 = icmp eq i32 %4, 7
  br i1 %cmp7, label %if.end, label %lor.lhs.false8

lor.lhs.false8:                                   ; preds = %lor.lhs.false6
  %5 = load i32, ptr %type.addr, align 4
  %cmp9 = icmp eq i32 %5, 8
  br i1 %cmp9, label %if.end, label %lor.lhs.false10

lor.lhs.false10:                                  ; preds = %lor.lhs.false8
  %6 = load i32, ptr %type.addr, align 4
  %cmp11 = icmp eq i32 %6, 10
  br i1 %cmp11, label %if.end, label %lor.lhs.false12

lor.lhs.false12:                                  ; preds = %lor.lhs.false10
  %7 = load i32, ptr %type.addr, align 4
  %cmp13 = icmp eq i32 %7, 11
  br i1 %cmp13, label %if.end, label %lor.lhs.false14

lor.lhs.false14:                                  ; preds = %lor.lhs.false12
  %8 = load i32, ptr %type.addr, align 4
  %cmp15 = icmp eq i32 %8, 12
  br i1 %cmp15, label %if.end, label %lor.lhs.false16

lor.lhs.false16:                                  ; preds = %lor.lhs.false14
  %9 = load i32, ptr %type.addr, align 4
  %cmp17 = icmp eq i32 %9, 13
  br i1 %cmp17, label %if.end, label %if.then

if.then:                                          ; preds = %lor.lhs.false16
  store i32 -173, ptr %retval, align 4
  br label %return

if.end:                                           ; preds = %lor.lhs.false16, %lor.lhs.false14, %lor.lhs.false12, %lor.lhs.false10, %lor.lhs.false8, %lor.lhs.false6, %lor.lhs.false4, %lor.lhs.false2, %lor.lhs.false, %entry
  %10 = load i32, ptr %type.addr, align 4
  switch i32 %10, label %sw.default [
    i32 3, label %sw.bb
    i32 4, label %sw.bb18
    i32 5, label %sw.bb19
    i32 6, label %sw.bb20
    i32 7, label %sw.bb21
    i32 8, label %sw.bb22
    i32 10, label %sw.bb23
    i32 11, label %sw.bb24
    i32 12, label %sw.bb25
    i32 13, label %sw.bb26
  ]

sw.bb:                                            ; preds = %if.end
  store i32 16, ptr %ret, align 4
  br label %sw.epilog

sw.bb18:                                          ; preds = %if.end
  store i32 20, ptr %ret, align 4
  br label %sw.epilog

sw.bb19:                                          ; preds = %if.end
  store i32 28, ptr %ret, align 4
  br label %sw.epilog

sw.bb20:                                          ; preds = %if.end
  store i32 32, ptr %ret, align 4
  br label %sw.epilog

sw.bb21:                                          ; preds = %if.end
  store i32 48, ptr %ret, align 4
  br label %sw.epilog

sw.bb22:                                          ; preds = %if.end
  store i32 64, ptr %ret, align 4
  br label %sw.epilog

sw.bb23:                                          ; preds = %if.end
  store i32 28, ptr %ret, align 4
  br label %sw.epilog

sw.bb24:                                          ; preds = %if.end
  store i32 32, ptr %ret, align 4
  br label %sw.epilog

sw.bb25:                                          ; preds = %if.end
  store i32 48, ptr %ret, align 4
  br label %sw.epilog

sw.bb26:                                          ; preds = %if.end
  store i32 64, ptr %ret, align 4
  br label %sw.epilog

sw.default:                                       ; preds = %if.end
  store i32 -173, ptr %ret, align 4
  br label %sw.epilog

sw.epilog:                                        ; preds = %sw.default, %sw.bb26, %sw.bb25, %sw.bb24, %sw.bb23, %sw.bb22, %sw.bb21, %sw.bb20, %sw.bb19, %sw.bb18, %sw.bb
  %11 = load i32, ptr %ret, align 4
  store i32 %11, ptr %retval, align 4
  br label %return

return:                                           ; preds = %sw.epilog, %if.then
  %12 = load i32, ptr %retval, align 4
  ret i32 %12
}