; Function Attrs: mustprogress nofree norecurse nosync nounwind willreturn memory(none) uwtable
define range(i32 -173, 65) i32 @wc_HmacSizeByType(i32 noundef %type) local_unnamed_addr #0 {
entry:
  %switch.tableidx = add i32 %type, -3
  %0 = icmp ult i32 %switch.tableidx, 11
  br i1 %0, label %switch.lookup, label %return

switch.lookup:                                    ; preds = %entry
  %1 = zext nneg i32 %switch.tableidx to i64
  %switch.gep = getelementptr inbounds nuw [11 x i32], ptr @switch.table.wc_HmacSizeByType, i64 0, i64 %1
  %switch.load = load i32, ptr %switch.gep, align 4
  br label %return

return:                                           ; preds = %switch.lookup, %entry
  %retval.0 = phi i32 [ -173, %entry ], [ %switch.load, %switch.lookup ]
  ret i32 %retval.0
}